target datalayout = "e-m:e-p270:32:32-p271:32:32-p272:64:64-i64:64-i128:128-f80:128-n8:16:32:64-S128"
target triple = "x86_64-unknown-linux-gnu"

%struct.GraphicHwOps = type { ptr, ptr, ptr, i8, ptr, ptr, ptr }
%struct.QemuTextConsole = type { %struct.QemuConsole, i32, i32, i32, i32, i32, i32, i32, i32, ptr, [2 x i32], [2 x i32], i32, i32, i32, i32, i32, i32, ptr, %struct.Fifo8 }
%struct.QemuConsole = type { %struct.Object, i32, ptr, ptr, %struct.DisplayScanout, i32, ptr, i32, ptr, i32, %struct.QemuUIInfo, ptr, ptr, ptr, %struct.CoQueue, %union.anon.0 }
%struct.Object = type { ptr, ptr, ptr, i32, ptr }
%struct.DisplayScanout = type { i32, %union.anon }
%union.anon = type { %struct.ScanoutTexture }
%struct.ScanoutTexture = type { i32, i8, i32, i32, i32, i32, i32, i32, ptr }
%struct.QemuUIInfo = type { i16, i16, i32, i32, i32, i32, i32 }
%struct.CoQueue = type { %struct.anon }
%struct.anon = type { ptr, ptr }
%union.anon.0 = type { %struct.QTailQLink }
%struct.QTailQLink = type { ptr, ptr }
%struct.Fifo8 = type { ptr, i32, i32, i32 }

@.str.2 = private unnamed_addr constant [18 x i8] c"qemu-text-console\00", align 1
@.str.3 = private unnamed_addr constant [13 x i8] c"qemu-console\00", align 1
@text_console_ops = internal constant %struct.GraphicHwOps { ptr null, ptr @text_console_invalidate, ptr null, i8 0, ptr @text_console_update, ptr null, ptr null }, align 8
@.str.4 = private unnamed_addr constant [99 x i8] c"/home/dtcxzyw/WorkSpace/Projects/compilers/llvm-opt-benchmark/bench/qemu/qemu/include/ui/console.h\00", align 1
@__func__.QEMU_TEXT_CONSOLE = private unnamed_addr constant [18 x i8] c"QEMU_TEXT_CONSOLE\00", align 1
@__func__.QEMU_CONSOLE = private unnamed_addr constant [13 x i8] c"QEMU_CONSOLE\00", align 1

; Function Attrs: nounwind sspstrong uwtable
define internal ptr @QEMU_CONSOLE(ptr noundef %obj) #0 {
entry:
  %obj.addr = alloca ptr, align 8
  store ptr %obj, ptr %obj.addr, align 8
  %0 = load ptr, ptr %obj.addr, align 8
  %call = call ptr @object_dynamic_cast_assert(ptr noundef %0, ptr noundef @.str.3, ptr noundef @.str.4, i32 noundef 12, ptr noundef @__func__.QEMU_CONSOLE)
  ret ptr %call
}

; Function Attrs: nounwind sspstrong uwtable
define internal ptr @QEMU_TEXT_CONSOLE(ptr noundef %obj) #0 {
entry:
  %obj.addr = alloca ptr, align 8
  store ptr %obj, ptr %obj.addr, align 8
  %0 = load ptr, ptr %obj.addr, align 8
  %call = call ptr @object_dynamic_cast_assert(ptr noundef %0, ptr noundef @.str.2, ptr noundef @.str.4, i32 noundef 18, ptr noundef @__func__.QEMU_TEXT_CONSOLE)
  ret ptr %call
}

; Function Attrs: nounwind sspstrong uwtable
define internal void @qemu_text_console_init(ptr noundef %obj) #0 {
entry:
  %obj.addr = alloca ptr, align 8
  %c = alloca ptr, align 8
  store ptr %obj, ptr %obj.addr, align 8
  %0 = load ptr, ptr %obj.addr, align 8
  %call = call ptr @QEMU_TEXT_CONSOLE(ptr noundef %0)
  store ptr %call, ptr %c, align 8
  %1 = load ptr, ptr %c, align 8
  %out_fifo = getelementptr inbounds %struct.QemuTextConsole, ptr %1, i32 0, i32 19
  call void @fifo8_create(ptr noundef %out_fifo, i32 noundef 16)
  %2 = load ptr, ptr %c, align 8
  %total_height = getelementptr inbounds %struct.QemuTextConsole, ptr %2, i32 0, i32 3
  store i32 512, ptr %total_height, align 8
  %3 = load ptr, ptr %c, align 8
  %call1 = call ptr @QEMU_CONSOLE(ptr noundef %3)
  %hw_ops = getelementptr inbounds %struct.QemuConsole, ptr %call1, i32 0, i32 12
  store ptr @text_console_ops, ptr %hw_ops, align 8
  %4 = load ptr, ptr %c, align 8
  %5 = load ptr, ptr %c, align 8
  %call2 = call ptr @QEMU_CONSOLE(ptr noundef %5)
  %hw = getelementptr inbounds %struct.QemuConsole, ptr %call2, i32 0, i32 13
  store ptr %4, ptr %hw, align 8
  ret void
}