; Function Attrs: nounwind sspstrong uwtable
define internal void @qemu_text_console_init(ptr noundef %obj) #0 {
entry:
  %call.i = tail call ptr @object_dynamic_cast_assert(ptr noundef %obj, ptr noundef nonnull @.str.2, ptr noundef nonnull @.str.4, i32 noundef 18, ptr noundef nonnull @__func__.QEMU_TEXT_CONSOLE) #12
  %out_fifo = getelementptr inbounds nuw i8, ptr %call.i, i64 320
  tail call void @fifo8_create(ptr noundef nonnull %out_fifo, i32 noundef 16) #12
  %total_height = getelementptr inbounds nuw i8, ptr %call.i, i64 240
  store i32 512, ptr %total_height, align 8
  %call.i5 = tail call ptr @object_dynamic_cast_assert(ptr noundef %call.i, ptr noundef nonnull @.str.3, ptr noundef nonnull @.str.4, i32 noundef 12, ptr noundef nonnull @__func__.QEMU_CONSOLE) #12
  %hw_ops = getelementptr inbounds nuw i8, ptr %call.i5, i64 184
  store ptr @text_console_ops, ptr %hw_ops, align 8
  %call.i6 = tail call ptr @object_dynamic_cast_assert(ptr noundef %call.i, ptr noundef nonnull @.str.3, ptr noundef nonnull @.str.4, i32 noundef 12, ptr noundef nonnull @__func__.QEMU_CONSOLE) #12
  %hw = getelementptr inbounds nuw i8, ptr %call.i6, i64 192
  store ptr %call.i, ptr %hw, align 8
  ret void
}